
 Start  Stop   Length Name                   Class
 00000H 020EFH 020F0H _TEXT                  CODE
 020F0H 020F1H 00002H EMULATOR_TEXT          CODE
 020F2H 020F2H 00000H C_ETEXT                ENDCODE
 02100H 02100H 00000H EMULATOR_DATA          FAR_DATA
 02100H 02141H 00042H NULL                   BEGDATA
 02142H 0244DH 0030CH _DATA                  DATA
 0244EH 0244FH 00002H XIQC                   DATA
 02450H 0245BH 0000CH DBDATA                 DATA
 0245CH 02469H 0000EH CDATA                  DATA
 0246AH 0246AH 00000H XIFB                   DATA
 0246AH 0246AH 00000H XIF                    DATA
 0246AH 0246AH 00000H XIFE                   DATA
 0246AH 0246AH 00000H XIB                    DATA
 0246AH 0246AH 00000H XI                     DATA
 0246AH 0246AH 00000H XIE                    DATA
 0246AH 0246AH 00000H XPB                    DATA
 0246AH 0246BH 00002H XP                     DATA
 0246CH 0246CH 00000H XPE                    DATA
 0246CH 0246CH 00000H XCB                    DATA
 0246CH 0246CH 00000H XC                     DATA
 0246CH 0246CH 00000H XCE                    DATA
 0246CH 0246CH 00000H XCFB                   DATA
 0246CH 0246CH 00000H XCFCRT                 DATA
 0246CH 0246CH 00000H XCF                    DATA
 0246CH 0246CH 00000H XCFE                   DATA
 0246CH 0246CH 00000H XIFCB                  DATA
 0246CH 0246CH 00000H XIFU                   DATA
 0246CH 0246CH 00000H XIFL                   DATA
 0246CH 0246CH 00000H XIFM                   DATA
 0246CH 0246CH 00000H XIFCE                  DATA
 0246CH 0246CH 00000H CONST                  CONST
 0246CH 02473H 00008H HDR                    MSG
 02474H 02549H 000D6H MSG                    MSG
 0254AH 0254BH 00002H PAD                    MSG
 0254CH 0254CH 00001H EPAD                   MSG
 0254EH 0254EH 00000H _BSS                   BSS
 0254EH 0254EH 00000H XOB                    BSS
 0254EH 0254EH 00000H XO                     BSS
 0254EH 0254EH 00000H XOE                    BSS
 0254EH 0254EH 00000H XOFB                   BSS
 0254EH 0254EH 00000H XOF                    BSS
 0254EH 0254EH 00000H XOFE                   BSS
 02550H 0256DH 0001EH c_common               BSS
 02570H 02D6FH 00800H STACK                  STACK

 Origin   Group
 0210:0   DGROUP

  Address         Publics by Name

 0210:0456       _area
 0000:0F18       _atoi
 0210:045C       _currX
 0210:045E       _currY
 0210:0450       _dbglvl
 0210:044E       _edata
 0210:0470       _end
 0210:0130       _errno
 0000:0DFA       _exit
 0000:1E3C       _fclose
 0000:18DA       _fflush
 0000:0756       _gchar_test
 0000:014E       _gdc_cchar
 0000:00FA       _gdc_display
 0000:0382       _gdc_done
 0000:039E       _gdc_Dparam
 0000:0622       _gdc_fill
 0000:06D2       _gdc_fill2
 0000:03C2       _gdc_hline
 0000:02D8       _gdc_init
 0000:051E       _gdc_line
 0000:0292       _gdc_mask
 0000:02B2       _gdc_mode
 0000:01B4       _gdc_pattern
 0000:016C       _gdc_pitch
 0000:0184       _gdc_pram
 0000:0010       _gdc_putc
 0000:0032       _gdc_putp
 0000:0126       _gdc_reset
 0000:0220       _gdc_setcursor
 0000:0286       _gdc_start
 0000:010E       _gdc_sync
 0000:0054       _gdc_sync_params
 0000:013A       _gdc_vsync
 0000:01CA       _gdc_zoom_display
 0000:01F6       _gdc_zoom_draw
 0210:0454       _HBP
 0210:045A       _HFP
 0210:0455       _HS
 0000:080C       _main
 0210:045B       _Mode
 0000:0EDC       _printf
 0000:2066       _remove
 0210:046A       _start_address
 0210:016A       _STKHQQ
 0000:1FD8       _strcat
 0000:2018       _strcpy
 0210:0464       _Xmax
 0210:0466       _Ymax
 0210:0460       _Ypitch
 0210:0452       _Ypitch_wds
 0210:0462       _Zoom_Display
 0210:0468       _Zoom_Draw
 0210:0168       __aaltstkovr
 0210:0114       __acfinfo
 0000:9876  Abs  __acrtmsg
 0000:9876  Abs  __acrtused
 0000:D6D6  Abs  __aDBdoswp
 0210:016C       __adbgmsg
 0210:00F6       __aexit_rtn
 0210:0122       __aintdiv
 0210:0332       __amblksiz
 0000:0CFD       __amsg_exit
 0000:0EC4       __aNchkstk
 0000:0F1C       __aNlshr
 0210:0042       __anullsize
 0210:010E       __aseghi
 0210:0110       __aseglo
 0210:00F8       __asizds
 0210:032E       __asizeC
 0210:032F       __asizeD
 0000:0C32       __astart
 0210:00F4       __atopsp
 0000:1770       __catox
 0000:0E09       __cexit
 0210:031C       __cfltcvt_tab
 0210:031A       __cflush
 0210:015F       __child
 0000:0EC4       __chkstk
 0000:0D28       __cinit
 0000:0CEE       __cintDIV
 0000:1FB8       __close
 0000:2074       __cltoasub
 0000:1D8C       __commit
 0210:013B       __cpumode
 0000:0E88       __ctermsub
 0000:2080       __cxtoa
 0000:0E13       __c_exit
 0000:0D26       __dataseg
 0210:013C       __doserrno
 0000:1DE6       __dosret0
 0000:1DFB       __dosretax
 0000:1DEE       __dosreturn
 0210:0138       __dosvermajor
 0210:0139       __dosverminor
 0000:1F80       __dos_commit
 0210:044E       __edata
 020F:0000       __EmDataSeg
 0210:0470       __end
 0000:17E8       __endstdio
 0210:0158       __environ
 0000:0E01       __exit
 0210:0167       __exitflag
 0210:0126       __fac
 0000:11D8       __farstub
 0000:1D68       __fcloseall
 0210:0112       __fDosExt
 0000:0F28       __FF_MSGBANNER
 0000:1D47       __findlast
 0000:17FA       __flsbuf
 0000:1928       __flush
 0000:199E       __flushall
 0210:035E       __fpinit
 0000:0F48       __fptrap
 0000:1F8E       __freebuf
 0000:124B       __ftbuf
 0000:1A0C       __getbuf
 0000:1C6A       __growseg
 0000:1CF6       __incseg
 0000:20D4       __inp
 0210:0162       __intno
 0210:0170       __iob
 0210:0210       __iob2
 0000:204A       __itoa
 0210:02B0       __lastiob
 0000:1A4E       __lseek
 0210:034C       __lseekchk
 0000:1E08       __maperror
 0000:17C4       __myalloc
 0210:013E       __nfile
 0000:1C0E       __nfree
 0210:00FA       __nheap_desc
 0000:1C2F       __nmalloc
 0000:1178       __NMSG_TEXT
 0000:11A3       __NMSG_WRITE
 0000:0F4E       __nullcheck
 0210:013C       __oserr
 0210:0140       __osfile
 0210:0138       __osmajor
 0210:0139       __osminor
 0210:013A       __osmode
 0210:0138       __osversion
 0000:20E2       __outp
 0000:129A       __output
 0210:0161       __ovlflag
 0210:0163       __ovlvec
 0210:015A       __pgmptr
 0210:0330       __pnhNearHeap
 0210:0136       __psp
 0210:0134       __pspadr
 0000:1F04       __searchseg
 0000:0F70       __setargv
 0000:10FA       __setenvp
 0210:032C       __sigintoff
 0210:032A       __sigintseg
 0000:1EF2       __stackavail
 0000:11DA       __stbuf
 0210:0132       __umaskval
 0000:2066       __unlink
 0000:1AD0       __write
 0210:0356       ___aDBexit
 0210:0354       ___aDBrterr
 0210:0352       ___aDBswpchk
 0210:0350       ___aDBswpflg
 0210:0154       ___argc
 0210:0156       ___argv
 0210:034E       ___qczrinit

  Address         Publics by Value

 0000:0010       _gdc_putc
 0000:0032       _gdc_putp
 0000:0054       _gdc_sync_params
 0000:00FA       _gdc_display
 0000:010E       _gdc_sync
 0000:0126       _gdc_reset
 0000:013A       _gdc_vsync
 0000:014E       _gdc_cchar
 0000:016C       _gdc_pitch
 0000:0184       _gdc_pram
 0000:01B4       _gdc_pattern
 0000:01CA       _gdc_zoom_display
 0000:01F6       _gdc_zoom_draw
 0000:0220       _gdc_setcursor
 0000:0286       _gdc_start
 0000:0292       _gdc_mask
 0000:02B2       _gdc_mode
 0000:02D8       _gdc_init
 0000:0382       _gdc_done
 0000:039E       _gdc_Dparam
 0000:03C2       _gdc_hline
 0000:051E       _gdc_line
 0000:0622       _gdc_fill
 0000:06D2       _gdc_fill2
 0000:0756       _gchar_test
 0000:080C       _main
 0000:0C32       __astart
 0000:0CEE       __cintDIV
 0000:0CFD       __amsg_exit
 0000:0D26       __dataseg
 0000:0D28       __cinit
 0000:0DFA       _exit
 0000:0E01       __exit
 0000:0E09       __cexit
 0000:0E13       __c_exit
 0000:0E88       __ctermsub
 0000:0EC4       __aNchkstk
 0000:0EC4       __chkstk
 0000:0EDC       _printf
 0000:0F18       _atoi
 0000:0F1C       __aNlshr
 0000:0F28       __FF_MSGBANNER
 0000:0F48       __fptrap
 0000:0F4E       __nullcheck
 0000:0F70       __setargv
 0000:10FA       __setenvp
 0000:1178       __NMSG_TEXT
 0000:11A3       __NMSG_WRITE
 0000:11D8       __farstub
 0000:11DA       __stbuf
 0000:124B       __ftbuf
 0000:129A       __output
 0000:1770       __catox
 0000:17C4       __myalloc
 0000:17E8       __endstdio
 0000:17FA       __flsbuf
 0000:18DA       _fflush
 0000:1928       __flush
 0000:199E       __flushall
 0000:1A0C       __getbuf
 0000:1A4E       __lseek
 0000:1AD0       __write
 0000:1C0E       __nfree
 0000:1C2F       __nmalloc
 0000:1C6A       __growseg
 0000:1CF6       __incseg
 0000:1D47       __findlast
 0000:1D68       __fcloseall
 0000:1D8C       __commit
 0000:1DE6       __dosret0
 0000:1DEE       __dosreturn
 0000:1DFB       __dosretax
 0000:1E08       __maperror
 0000:1E3C       _fclose
 0000:1EF2       __stackavail
 0000:1F04       __searchseg
 0000:1F80       __dos_commit
 0000:1F8E       __freebuf
 0000:1FB8       __close
 0000:1FD8       _strcat
 0000:2018       _strcpy
 0000:204A       __itoa
 0000:2066       __unlink
 0000:2066       _remove
 0000:2074       __cltoasub
 0000:2080       __cxtoa
 0000:20D4       __inp
 0000:20E2       __outp
 020F:0000       __EmDataSeg
 0210:0042       __anullsize
 0210:00F4       __atopsp
 0210:00F6       __aexit_rtn
 0210:00F8       __asizds
 0210:00FA       __nheap_desc
 0210:010E       __aseghi
 0210:0110       __aseglo
 0210:0112       __fDosExt
 0210:0114       __acfinfo
 0210:0122       __aintdiv
 0210:0126       __fac
 0210:0130       _errno
 0210:0132       __umaskval
 0210:0134       __pspadr
 0210:0136       __psp
 0210:0138       __osversion
 0210:0138       __dosvermajor
 0210:0138       __osmajor
 0210:0139       __dosverminor
 0210:0139       __osminor
 0210:013A       __osmode
 0210:013B       __cpumode
 0210:013C       __doserrno
 0210:013C       __oserr
 0210:013E       __nfile
 0210:0140       __osfile
 0210:0154       ___argc
 0210:0156       ___argv
 0210:0158       __environ
 0210:015A       __pgmptr
 0210:015F       __child
 0210:0161       __ovlflag
 0210:0162       __intno
 0210:0163       __ovlvec
 0210:0167       __exitflag
 0210:0168       __aaltstkovr
 0210:016A       _STKHQQ
 0210:016C       __adbgmsg
 0210:0170       __iob
 0210:0210       __iob2
 0210:02B0       __lastiob
 0210:031A       __cflush
 0210:031C       __cfltcvt_tab
 0210:032A       __sigintseg
 0210:032C       __sigintoff
 0210:032E       __asizeC
 0210:032F       __asizeD
 0210:0330       __pnhNearHeap
 0210:0332       __amblksiz
 0210:034C       __lseekchk
 0210:034E       ___qczrinit
 0210:0350       ___aDBswpflg
 0210:0352       ___aDBswpchk
 0210:0354       ___aDBrterr
 0210:0356       ___aDBexit
 0210:035E       __fpinit
 0210:044E       __edata
 0210:044E       _edata
 0210:0450       _dbglvl
 0210:0452       _Ypitch_wds
 0210:0454       _HBP
 0210:0455       _HS
 0210:0456       _area
 0210:045A       _HFP
 0210:045B       _Mode
 0210:045C       _currX
 0210:045E       _currY
 0210:0460       _Ypitch
 0210:0462       _Zoom_Display
 0210:0464       _Xmax
 0210:0466       _Ymax
 0210:0468       _Zoom_Draw
 0210:046A       _start_address
 0210:0470       _end
 0210:0470       __end
 0000:9876  Abs  __acrtmsg
 0000:9876  Abs  __acrtused
 0000:D6D6  Abs  __aDBdoswp

Program entry point at 0000:0C32
